target datalayout = "e-m:e-p270:32:32-p271:32:32-p272:64:64-i64:64-i128:128-f80:128-n8:16:32:64-S128"
target triple = "x86_64-pc-linux-gnu"

%struct.expert_field = type { i32, i32 }
%struct._packet_info = type { ptr, ptr, i32, i32, %struct.nstime_t, %struct.nstime_t, %struct.nstime_t, i8, ptr, ptr, ptr, ptr, %struct._address, %struct._address, %struct._address, %struct._address, %struct._address, %struct._address, i32, ptr, i8, [3 x i8], %struct.anon, i32, i32, i32, i32, ptr, i8, ptr, ptr, i16, i16, i32, i32, i16, i32, i32, ptr, ptr, ptr, i8, i8, i16, i16, i16, i32, i16, i16, ptr, ptr, ptr, ptr, ptr, i32, i32 }
%struct.nstime_t = type { i64, i32 }
%struct._address = type { i32, i32, ptr, ptr }
%struct.anon = type { i8, [3 x i8] }

@ei_gsm_a_gm_extraneous_data = internal global %struct.expert_field zeroinitializer, align 4
@.str.61 = private unnamed_addr constant [8 x i8] c"%s (%u)\00", align 1
@.str.138 = private unnamed_addr constant [7 x i8] c"0 kbps\00", align 1
@.str.139 = private unnamed_addr constant [8 x i8] c"%u kbps\00", align 1
@.str.140 = private unnamed_addr constant [50 x i8] c"Subscribed maximum bit rate for downlink/reserved\00", align 1
@hf_gsm_a_sm_qos_max_bitrate_downl = internal global i32 0, align 4
@.str.147 = private unnamed_addr constant [61 x i8] c"Use the value indicated by the Maximum bit rate for downlink\00", align 1
@.str.148 = private unnamed_addr constant [8 x i8] c"%u Mbps\00", align 1
@hf_gsm_a_sm_qos_max_bitrate_downl_ext = internal global i32 0, align 4

; Function Attrs: nounwind null_pointer_is_valid sspstrong uwtable
define internal i32 @qos_calc_ext_bitrate(i8 noundef zeroext %0) #5 {
  %2 = alloca i32, align 4
  %3 = alloca i8, align 1
  store i8 %0, ptr %3, align 1
  %4 = load i8, ptr %3, align 1
  %5 = zext i8 %4 to i32
  %6 = icmp sle i32 %5, 74
  br i1 %6, label %7, label %12

7:                                                ; preds = %1
  %8 = load i8, ptr %3, align 1
  %9 = zext i8 %8 to i32
  %10 = mul i32 %9, 100
  %11 = add i32 8600, %10
  store i32 %11, ptr %2, align 4
  br label %28

12:                                               ; preds = %1
  %13 = load i8, ptr %3, align 1
  %14 = zext i8 %13 to i32
  %15 = icmp sle i32 %14, 186
  br i1 %15, label %16, label %22

16:                                               ; preds = %12
  %17 = load i8, ptr %3, align 1
  %18 = zext i8 %17 to i32
  %19 = sub i32 %18, 74
  %20 = mul i32 %19, 1000
  %21 = add i32 16000, %20
  store i32 %21, ptr %2, align 4
  br label %28

22:                                               ; preds = %12
  %23 = load i8, ptr %3, align 1
  %24 = zext i8 %23 to i32
  %25 = sub i32 %24, 186
  %26 = mul i32 %25, 2000
  %27 = add i32 128000, %26
  store i32 %27, ptr %2, align 4
  br label %28

28:                                               ; preds = %22, %16, %7
  %29 = load i32, ptr %2, align 4
  ret i32 %29
}

; Function Attrs: nounwind null_pointer_is_valid sspstrong uwtable
define internal i32 @qos_calc_bitrate(i8 noundef zeroext %0) #5 {
  %2 = alloca i32, align 4
  %3 = alloca i8, align 1
  store i8 %0, ptr %3, align 1
  %4 = load i8, ptr %3, align 1
  %5 = zext i8 %4 to i32
  %6 = icmp sle i32 %5, 63
  br i1 %6, label %7, label %10

7:                                                ; preds = %1
  %8 = load i8, ptr %3, align 1
  %9 = zext i8 %8 to i32
  store i32 %9, ptr %2, align 4
  br label %26

10:                                               ; preds = %1
  %11 = load i8, ptr %3, align 1
  %12 = zext i8 %11 to i32
  %13 = icmp sle i32 %12, 127
  br i1 %13, label %14, label %20

14:                                               ; preds = %10
  %15 = load i8, ptr %3, align 1
  %16 = zext i8 %15 to i32
  %17 = sub i32 %16, 64
  %18 = mul i32 %17, 8
  %19 = add i32 64, %18
  store i32 %19, ptr %2, align 4
  br label %26

20:                                               ; preds = %10
  %21 = load i8, ptr %3, align 1
  %22 = zext i8 %21 to i32
  %23 = sub i32 %22, 128
  %24 = mul i32 %23, 64
  %25 = add i32 576, %24
  store i32 %25, ptr %2, align 4
  br label %26

26:                                               ; preds = %20, %14, %7
  %27 = load i32, ptr %2, align 4
  ret i32 %27
}

; Function Attrs: null_pointer_is_valid sspstrong uwtable
define internal zeroext i16 @de_sm_mbms_bearer_cap(ptr noundef %0, ptr noundef %1, ptr noundef %2, i32 noundef %3, i32 noundef %4, ptr noundef %5, i32 noundef %6) #1 {
  %8 = alloca i16, align 2
  %9 = alloca ptr, align 8
  %10 = alloca ptr, align 8
  %11 = alloca ptr, align 8
  %12 = alloca i32, align 4
  %13 = alloca i32, align 4
  %14 = alloca ptr, align 8
  %15 = alloca i32, align 4
  %16 = alloca i32, align 4
  %17 = alloca i32, align 4
  %18 = alloca i8, align 1
  %19 = alloca ptr, align 8
  %20 = alloca i32, align 4
  store ptr %0, ptr %9, align 8
  store ptr %1, ptr %10, align 8
  store ptr %2, ptr %11, align 8
  store i32 %3, ptr %12, align 4
  store i32 %4, ptr %13, align 4
  store ptr %5, ptr %14, align 8
  store i32 %6, ptr %15, align 4
  call void @llvm.lifetime.start.p0(i64 4, ptr %16) #6
  call void @llvm.lifetime.start.p0(i64 4, ptr %17) #6
  call void @llvm.lifetime.start.p0(i64 1, ptr %18) #6
  call void @llvm.lifetime.start.p0(i64 8, ptr %19) #6
  %21 = load i32, ptr %12, align 4
  store i32 %21, ptr %16, align 4
  %22 = load ptr, ptr %9, align 8
  %23 = load i32, ptr %16, align 4
  %24 = call zeroext i8 @tvb_get_uint8(ptr noundef %22, i32 noundef %23)
  store i8 %24, ptr %18, align 1
  %25 = load i8, ptr %18, align 1
  %26 = zext i8 %25 to i32
  switch i32 %26, label %29 [
    i32 0, label %27
    i32 255, label %28
  ]

27:                                               ; preds = %7
  store ptr @.str.140, ptr %19, align 8
  br label %36

28:                                               ; preds = %7
  store ptr @.str.138, ptr %19, align 8
  br label %36

29:                                               ; preds = %7
  %30 = load ptr, ptr %11, align 8
  %31 = getelementptr inbounds nuw %struct._packet_info, ptr %30, i32 0, i32 51
  %32 = load ptr, ptr %31, align 8
  %33 = load i8, ptr %18, align 1
  %34 = call i32 @qos_calc_bitrate(i8 noundef zeroext %33)
  %35 = call noalias ptr (ptr, ptr, ...) @wmem_strdup_printf(ptr noundef %32, ptr noundef @.str.139, i32 noundef %34)
  store ptr %35, ptr %19, align 8
  br label %36

36:                                               ; preds = %29, %28, %27
  %37 = load ptr, ptr %10, align 8
  %38 = load i32, ptr @hf_gsm_a_sm_qos_max_bitrate_downl, align 4
  %39 = load ptr, ptr %9, align 8
  %40 = load i32, ptr %16, align 4
  %41 = load i8, ptr %18, align 1
  %42 = zext i8 %41 to i32
  %43 = load ptr, ptr %19, align 8
  %44 = load i8, ptr %18, align 1
  %45 = zext i8 %44 to i32
  %46 = call ptr (ptr, i32, ptr, i32, i32, i32, ptr, ...) @proto_tree_add_uint_format_value(ptr noundef %37, i32 noundef %38, ptr noundef %39, i32 noundef %40, i32 noundef 1, i32 noundef %42, ptr noundef @.str.61, ptr noundef %43, i32 noundef %45)
  %47 = load i32, ptr %16, align 4
  %48 = add i32 %47, 1
  store i32 %48, ptr %16, align 4
  %49 = load i32, ptr %13, align 4
  %50 = load i32, ptr %16, align 4
  %51 = load i32, ptr %12, align 4
  %52 = sub i32 %50, %51
  %53 = icmp ule i32 %49, %52
  br i1 %53, label %54, label %57

54:                                               ; preds = %36
  %55 = load i32, ptr %13, align 4
  %56 = trunc i32 %55 to i16
  store i16 %56, ptr %8, align 2
  store i32 1, ptr %20, align 4
  br label %126

57:                                               ; preds = %36
  %58 = load ptr, ptr %9, align 8
  %59 = load i32, ptr %16, align 4
  %60 = call zeroext i8 @tvb_get_uint8(ptr noundef %58, i32 noundef %59)
  store i8 %60, ptr %18, align 1
  %61 = load i8, ptr %18, align 1
  %62 = zext i8 %61 to i32
  %63 = icmp eq i32 %62, 0
  br i1 %63, label %64, label %65

64:                                               ; preds = %57
  store ptr @.str.147, ptr %19, align 8
  br label %85

65:                                               ; preds = %57
  %66 = load i8, ptr %18, align 1
  %67 = call i32 @qos_calc_ext_bitrate(i8 noundef zeroext %66)
  store i32 %67, ptr %17, align 4
  %68 = load i32, ptr %17, align 4
  %69 = urem i32 %68, 1000
  %70 = icmp eq i32 %69, 0
  br i1 %70, label %71, label %78

71:                                               ; preds = %65
  %72 = load ptr, ptr %11, align 8
  %73 = getelementptr inbounds nuw %struct._packet_info, ptr %72, i32 0, i32 51
  %74 = load ptr, ptr %73, align 8
  %75 = load i32, ptr %17, align 4
  %76 = udiv i32 %75, 1000
  %77 = call noalias ptr (ptr, ptr, ...) @wmem_strdup_printf(ptr noundef %74, ptr noundef @.str.148, i32 noundef %76)
  store ptr %77, ptr %19, align 8
  br label %84

78:                                               ; preds = %65
  %79 = load ptr, ptr %11, align 8
  %80 = getelementptr inbounds nuw %struct._packet_info, ptr %79, i32 0, i32 51
  %81 = load ptr, ptr %80, align 8
  %82 = load i32, ptr %17, align 4
  %83 = call noalias ptr (ptr, ptr, ...) @wmem_strdup_printf(ptr noundef %81, ptr noundef @.str.139, i32 noundef %82)
  store ptr %83, ptr %19, align 8
  br label %84

84:                                               ; preds = %78, %71
  br label %85

85:                                               ; preds = %84, %64
  %86 = load ptr, ptr %10, align 8
  %87 = load i32, ptr @hf_gsm_a_sm_qos_max_bitrate_downl_ext, align 4
  %88 = load ptr, ptr %9, align 8
  %89 = load i32, ptr %16, align 4
  %90 = load i8, ptr %18, align 1
  %91 = zext i8 %90 to i32
  %92 = load ptr, ptr %19, align 8
  %93 = load i8, ptr %18, align 1
  %94 = zext i8 %93 to i32
  %95 = call ptr (ptr, i32, ptr, i32, i32, i32, ptr, ...) @proto_tree_add_uint_format_value(ptr noundef %86, i32 noundef %87, ptr noundef %88, i32 noundef %89, i32 noundef 1, i32 noundef %91, ptr noundef @.str.61, ptr noundef %92, i32 noundef %94)
  %96 = load i32, ptr %16, align 4
  %97 = add i32 %96, 1
  store i32 %97, ptr %16, align 4
  %98 = load i32, ptr %13, align 4
  %99 = load i32, ptr %16, align 4
  %100 = load i32, ptr %12, align 4
  %101 = sub i32 %99, %100
  %102 = icmp ugt i32 %98, %101
  br i1 %102, label %103, label %121

103:                                              ; preds = %85
  %104 = load ptr, ptr %10, align 8
  %105 = load ptr, ptr %11, align 8
  %106 = load ptr, ptr %9, align 8
  %107 = load i32, ptr %16, align 4
  %108 = load i32, ptr %13, align 4
  %109 = load i32, ptr %16, align 4
  %110 = load i32, ptr %12, align 4
  %111 = sub i32 %109, %110
  %112 = sub i32 %108, %111
  %113 = call ptr @proto_tree_add_expert(ptr noundef %104, ptr noundef %105, ptr noundef @ei_gsm_a_gm_extraneous_data, ptr noundef %106, i32 noundef %107, i32 noundef %112)
  %114 = load i32, ptr %13, align 4
  %115 = load i32, ptr %16, align 4
  %116 = load i32, ptr %12, align 4
  %117 = sub i32 %115, %116
  %118 = sub i32 %114, %117
  %119 = load i32, ptr %16, align 4
  %120 = add i32 %119, %118
  store i32 %120, ptr %16, align 4
  br label %121

121:                                              ; preds = %103, %85
  %122 = load i32, ptr %16, align 4
  %123 = load i32, ptr %12, align 4
  %124 = sub i32 %122, %123
  %125 = trunc i32 %124 to i16
  store i16 %125, ptr %8, align 2
  store i32 1, ptr %20, align 4
  br label %126

126:                                              ; preds = %121, %54
  call void @llvm.lifetime.end.p0(i64 8, ptr %19) #6
  call void @llvm.lifetime.end.p0(i64 1, ptr %18) #6
  call void @llvm.lifetime.end.p0(i64 4, ptr %17) #6
  call void @llvm.lifetime.end.p0(i64 4, ptr %16) #6
  %127 = load i16, ptr %8, align 2
  ret i16 %127
}