; Function Attrs: null_pointer_is_valid sspstrong uwtable
define internal noundef zeroext i16 @de_sm_mbms_bearer_cap(ptr noundef %0, ptr noundef %1, ptr noundef %2, i32 noundef %3, i32 noundef %4, ptr readnone captures(none) %5, i32 %6) #1 {
  %8 = tail call zeroext i8 @tvb_get_uint8(ptr noundef %0, i32 noundef %3)
  %9 = zext i8 %8 to i32
  switch i8 %8, label %11 [
    i8 0, label %24
    i8 -1, label %10
  ]

10:                                               ; preds = %7
  br label %24

11:                                               ; preds = %7
  %12 = getelementptr inbounds nuw i8, ptr %2, i64 408
  %13 = load ptr, ptr %12, align 8
  %14 = icmp ult i8 %8, 64
  br i1 %14, label %qos_calc_bitrate.exit, label %15

15:                                               ; preds = %11
  %16 = icmp sgt i8 %8, -1
  br i1 %16, label %17, label %20

17:                                               ; preds = %15
  %18 = shl nuw nsw i32 %9, 3
  %19 = add nsw i32 %18, -448
  br label %qos_calc_bitrate.exit

20:                                               ; preds = %15
  %21 = shl nuw nsw i32 %9, 6
  %22 = add nsw i32 %21, -7616
  br label %qos_calc_bitrate.exit

qos_calc_bitrate.exit:                            ; preds = %11, %17, %20
  %.0.i = phi i32 [ %19, %17 ], [ %22, %20 ], [ %9, %11 ]
  %23 = tail call noalias ptr (ptr, ptr, ...) @wmem_strdup_printf(ptr noundef %13, ptr noundef nonnull @.str.139, i32 noundef %.0.i)
  br label %24

24:                                               ; preds = %7, %qos_calc_bitrate.exit, %10
  %.0 = phi ptr [ %23, %qos_calc_bitrate.exit ], [ @.str.138, %10 ], [ @.str.140, %7 ]
  %25 = load i32, ptr @hf_gsm_a_sm_qos_max_bitrate_downl, align 4
  %26 = tail call ptr (ptr, i32, ptr, i32, i32, i32, ptr, ...) @proto_tree_add_uint_format_value(ptr noundef %1, i32 noundef %25, ptr noundef %0, i32 noundef %3, i32 noundef 1, i32 noundef %9, ptr noundef nonnull @.str.61, ptr noundef %.0, i32 noundef %9)
  %27 = add i32 %3, 1
  %28 = icmp ult i32 %4, 2
  br i1 %28, label %57, label %29

29:                                               ; preds = %24
  %30 = tail call zeroext i8 @tvb_get_uint8(ptr noundef %0, i32 noundef %27)
  %31 = zext i8 %30 to i32
  %32 = icmp eq i8 %30, 0
  br i1 %32, label %47, label %33

33:                                               ; preds = %29
  %34 = icmp ult i8 %30, 75
  %35 = icmp ult i8 %30, -69
  %..i = select i1 %35, i32 1000, i32 2000
  %.9.i = select i1 %35, i32 -58000, i32 -244000
  %.sink8.i = select i1 %34, i32 100, i32 %..i
  %.sink7.i = select i1 %34, i32 8600, i32 %.9.i
  %36 = mul nuw nsw i32 %.sink8.i, %31
  %37 = add nsw i32 %36, %.sink7.i
  %38 = urem i32 %37, 1000
  %39 = udiv i32 %37, 1000
  %40 = icmp eq i32 %38, 0
  %41 = getelementptr inbounds nuw i8, ptr %2, i64 408
  %42 = load ptr, ptr %41, align 8
  br i1 %40, label %43, label %45

43:                                               ; preds = %33
  %44 = tail call noalias ptr (ptr, ptr, ...) @wmem_strdup_printf(ptr noundef %42, ptr noundef nonnull @.str.148, i32 noundef %39)
  br label %47

45:                                               ; preds = %33
  %46 = tail call noalias ptr (ptr, ptr, ...) @wmem_strdup_printf(ptr noundef %42, ptr noundef nonnull @.str.139, i32 noundef %37)
  br label %47

47:                                               ; preds = %29, %43, %45
  %.1 = phi ptr [ %44, %43 ], [ %46, %45 ], [ @.str.147, %29 ]
  %48 = load i32, ptr @hf_gsm_a_sm_qos_max_bitrate_downl_ext, align 4
  %49 = tail call ptr (ptr, i32, ptr, i32, i32, i32, ptr, ...) @proto_tree_add_uint_format_value(ptr noundef %1, i32 noundef %48, ptr noundef %0, i32 noundef %27, i32 noundef 1, i32 noundef %31, ptr noundef nonnull @.str.61, ptr noundef %.1, i32 noundef %31)
  %50 = add i32 %3, 2
  %.not = icmp eq i32 %4, 2
  br i1 %.not, label %55, label %51

51:                                               ; preds = %47
  %52 = add i32 %4, -2
  %53 = tail call ptr @proto_tree_add_expert(ptr noundef %1, ptr noundef %2, ptr noundef nonnull @ei_gsm_a_gm_extraneous_data, ptr noundef %0, i32 noundef %50, i32 noundef %52)
  %54 = add i32 %4, %3
  br label %55

55:                                               ; preds = %51, %47
  %.050 = phi i32 [ %54, %51 ], [ %50, %47 ]
  %56 = sub i32 %.050, %3
  br label %57

57:                                               ; preds = %24, %55
  %.049.in = phi i32 [ %56, %55 ], [ %4, %24 ]
  %.049 = trunc i32 %.049.in to i16
  ret i16 %.049
}